target datalayout = "e-m:e-p270:32:32-p271:32:32-p272:64:64-i64:64-i128:128-f80:128-n8:16:32:64-S128"
target triple = "x86_64-pc-linux-gnu"

%struct.Ivy_Store_t_ = type { i32, i32, i32, i32, [256 x %struct.Ivy_Cut_t_] }
%struct.Ivy_Cut_t_ = type { i32, i16, i16, [6 x i32], i32 }

; Function Attrs: nounwind uwtable
define i32 @Ivy_NodeCutFindOrAdd(ptr noundef %0, ptr noundef %1) #0 {
  %3 = alloca i32, align 4
  %4 = alloca ptr, align 8
  %5 = alloca ptr, align 8
  %6 = alloca ptr, align 8
  %7 = alloca i32, align 4
  %8 = alloca i32, align 4
  store ptr %0, ptr %4, align 8
  store ptr %1, ptr %5, align 8
  store i32 0, ptr %7, align 4
  br label %9

9:                                                ; preds = %76, %2
  %10 = load i32, ptr %7, align 4
  %11 = load ptr, ptr %4, align 8
  %12 = getelementptr inbounds %struct.Ivy_Store_t_, ptr %11, i32 0, i32 0
  %13 = load i32, ptr %12, align 4
  %14 = icmp slt i32 %10, %13
  br i1 %14, label %15, label %79

15:                                               ; preds = %9
  %16 = load ptr, ptr %4, align 8
  %17 = getelementptr inbounds %struct.Ivy_Store_t_, ptr %16, i32 0, i32 4
  %18 = getelementptr inbounds [256 x %struct.Ivy_Cut_t_], ptr %17, i64 0, i64 0
  %19 = load i32, ptr %7, align 4
  %20 = sext i32 %19 to i64
  %21 = getelementptr inbounds %struct.Ivy_Cut_t_, ptr %18, i64 %20
  store ptr %21, ptr %6, align 8
  %22 = load ptr, ptr %6, align 8
  %23 = getelementptr inbounds %struct.Ivy_Cut_t_, ptr %22, i32 0, i32 4
  %24 = load i32, ptr %23, align 4
  %25 = load ptr, ptr %5, align 8
  %26 = getelementptr inbounds %struct.Ivy_Cut_t_, ptr %25, i32 0, i32 4
  %27 = load i32, ptr %26, align 4
  %28 = icmp eq i32 %24, %27
  br i1 %28, label %29, label %75

29:                                               ; preds = %15
  %30 = load ptr, ptr %6, align 8
  %31 = getelementptr inbounds %struct.Ivy_Cut_t_, ptr %30, i32 0, i32 1
  %32 = load i16, ptr %31, align 4
  %33 = sext i16 %32 to i32
  %34 = load ptr, ptr %5, align 8
  %35 = getelementptr inbounds %struct.Ivy_Cut_t_, ptr %34, i32 0, i32 1
  %36 = load i16, ptr %35, align 4
  %37 = sext i16 %36 to i32
  %38 = icmp eq i32 %33, %37
  br i1 %38, label %39, label %75

39:                                               ; preds = %29
  store i32 0, ptr %8, align 4
  br label %40

40:                                               ; preds = %63, %39
  %41 = load i32, ptr %8, align 4
  %42 = load ptr, ptr %5, align 8
  %43 = getelementptr inbounds %struct.Ivy_Cut_t_, ptr %42, i32 0, i32 1
  %44 = load i16, ptr %43, align 4
  %45 = sext i16 %44 to i32
  %46 = icmp slt i32 %41, %45
  br i1 %46, label %47, label %66

47:                                               ; preds = %40
  %48 = load ptr, ptr %6, align 8
  %49 = getelementptr inbounds %struct.Ivy_Cut_t_, ptr %48, i32 0, i32 3
  %50 = load i32, ptr %8, align 4
  %51 = sext i32 %50 to i64
  %52 = getelementptr inbounds [6 x i32], ptr %49, i64 0, i64 %51
  %53 = load i32, ptr %52, align 4
  %54 = load ptr, ptr %5, align 8
  %55 = getelementptr inbounds %struct.Ivy_Cut_t_, ptr %54, i32 0, i32 3
  %56 = load i32, ptr %8, align 4
  %57 = sext i32 %56 to i64
  %58 = getelementptr inbounds [6 x i32], ptr %55, i64 0, i64 %57
  %59 = load i32, ptr %58, align 4
  %60 = icmp ne i32 %53, %59
  br i1 %60, label %61, label %62

61:                                               ; preds = %47
  br label %66

62:                                               ; preds = %47
  br label %63

63:                                               ; preds = %62
  %64 = load i32, ptr %8, align 4
  %65 = add nsw i32 %64, 1
  store i32 %65, ptr %8, align 4
  br label %40, !llvm.loop !22

66:                                               ; preds = %61, %40
  %67 = load i32, ptr %8, align 4
  %68 = load ptr, ptr %5, align 8
  %69 = getelementptr inbounds %struct.Ivy_Cut_t_, ptr %68, i32 0, i32 1
  %70 = load i16, ptr %69, align 4
  %71 = sext i16 %70 to i32
  %72 = icmp eq i32 %67, %71
  br i1 %72, label %73, label %74

73:                                               ; preds = %66
  store i32 1, ptr %3, align 4
  br label %91

74:                                               ; preds = %66
  br label %75

75:                                               ; preds = %74, %29, %15
  br label %76

76:                                               ; preds = %75
  %77 = load i32, ptr %7, align 4
  %78 = add nsw i32 %77, 1
  store i32 %78, ptr %7, align 4
  br label %9, !llvm.loop !23

79:                                               ; preds = %9
  %80 = load ptr, ptr %4, align 8
  %81 = getelementptr inbounds %struct.Ivy_Store_t_, ptr %80, i32 0, i32 4
  %82 = getelementptr inbounds [256 x %struct.Ivy_Cut_t_], ptr %81, i64 0, i64 0
  %83 = load ptr, ptr %4, align 8
  %84 = getelementptr inbounds %struct.Ivy_Store_t_, ptr %83, i32 0, i32 0
  %85 = load i32, ptr %84, align 4
  %86 = add nsw i32 %85, 1
  store i32 %86, ptr %84, align 4
  %87 = sext i32 %85 to i64
  %88 = getelementptr inbounds %struct.Ivy_Cut_t_, ptr %82, i64 %87
  store ptr %88, ptr %6, align 8
  %89 = load ptr, ptr %6, align 8
  %90 = load ptr, ptr %5, align 8
  call void @llvm.memcpy.p0.p0.i64(ptr align 4 %89, ptr align 4 %90, i64 36, i1 false)
  store i32 0, ptr %3, align 4
  br label %91

91:                                               ; preds = %79, %73
  %92 = load i32, ptr %3, align 4
  ret i32 %92
}