; Function Attrs: nofree norecurse nosync nounwind memory(argmem: readwrite) uwtable
define range(i32 0, 2) i32 @Ivy_NodeCutFindOrAdd(ptr noundef captures(none) %0, ptr noundef readonly captures(none) %1) local_unnamed_addr #6 {
  %3 = load i32, ptr %0, align 4
  %4 = icmp sgt i32 %3, 0
  br i1 %4, label %.lr.ph34, label %._crit_edge35

.lr.ph34:                                         ; preds = %2
  %5 = getelementptr inbounds nuw i8, ptr %0, i64 16
  %6 = getelementptr inbounds nuw i8, ptr %1, i64 32
  %7 = load i32, ptr %6, align 4
  %8 = getelementptr inbounds nuw i8, ptr %1, i64 4
  %9 = getelementptr inbounds nuw i8, ptr %1, i64 8
  %wide.trip.count41 = zext nneg i32 %3 to i64
  br label %10

10:                                               ; preds = %.lr.ph34, %30
  %indvars.iv38 = phi i64 [ 0, %.lr.ph34 ], [ %indvars.iv.next39, %30 ]
  %11 = getelementptr inbounds nuw %struct.Ivy_Cut_t_, ptr %5, i64 %indvars.iv38
  %12 = getelementptr inbounds nuw i8, ptr %11, i64 32
  %13 = load i32, ptr %12, align 4
  %14 = icmp eq i32 %13, %7
  br i1 %14, label %15, label %30

15:                                               ; preds = %10
  %16 = getelementptr inbounds nuw i8, ptr %11, i64 4
  %17 = load i16, ptr %16, align 4
  %18 = load i16, ptr %8, align 4
  %19 = icmp eq i16 %17, %18
  br i1 %19, label %.preheader, label %30

.preheader:                                       ; preds = %15
  %20 = getelementptr inbounds nuw i8, ptr %11, i64 8
  %21 = sext i16 %17 to i32
  %22 = icmp sgt i16 %17, 0
  br i1 %22, label %.lr.ph.preheader, label %._crit_edge

.lr.ph.preheader:                                 ; preds = %.preheader
  %wide.trip.count = zext nneg i32 %21 to i64
  br label %.lr.ph

.lr.ph:                                           ; preds = %.lr.ph.preheader, %27
  %indvars.iv = phi i64 [ 0, %.lr.ph.preheader ], [ %indvars.iv.next, %27 ]
  %23 = getelementptr inbounds nuw [6 x i32], ptr %20, i64 0, i64 %indvars.iv
  %24 = load i32, ptr %23, align 4
  %25 = getelementptr inbounds nuw [6 x i32], ptr %9, i64 0, i64 %indvars.iv
  %26 = load i32, ptr %25, align 4
  %.not = icmp eq i32 %24, %26
  br i1 %.not, label %27, label %._crit_edge.loopexit

27:                                               ; preds = %.lr.ph
  %indvars.iv.next = add nuw nsw i64 %indvars.iv, 1
  %exitcond.not = icmp eq i64 %indvars.iv.next, %wide.trip.count
  br i1 %exitcond.not, label %.loopexit, label %.lr.ph, !llvm.loop !22

._crit_edge.loopexit:                             ; preds = %.lr.ph
  %28 = trunc nuw nsw i64 %indvars.iv to i32
  br label %._crit_edge

._crit_edge:                                      ; preds = %._crit_edge.loopexit, %.preheader
  %.0.lcssa = phi i32 [ 0, %.preheader ], [ %28, %._crit_edge.loopexit ]
  %29 = icmp eq i32 %.0.lcssa, %21
  br i1 %29, label %.loopexit, label %30

30:                                               ; preds = %10, %15, %._crit_edge
  %indvars.iv.next39 = add nuw nsw i64 %indvars.iv38, 1
  %exitcond42.not = icmp eq i64 %indvars.iv.next39, %wide.trip.count41
  br i1 %exitcond42.not, label %._crit_edge35, label %10, !llvm.loop !23

._crit_edge35:                                    ; preds = %30, %2
  %31 = getelementptr inbounds nuw i8, ptr %0, i64 16
  %32 = add nsw i32 %3, 1
  store i32 %32, ptr %0, align 4
  %33 = sext i32 %3 to i64
  %34 = getelementptr inbounds %struct.Ivy_Cut_t_, ptr %31, i64 %33
  tail call void @llvm.memcpy.p0.p0.i64(ptr noundef nonnull align 4 dereferenceable(36) %34, ptr noundef nonnull align 4 dereferenceable(36) %1, i64 36, i1 false)
  br label %.loopexit

.loopexit:                                        ; preds = %._crit_edge, %27, %._crit_edge35
  %.023 = phi i32 [ 0, %._crit_edge35 ], [ 1, %27 ], [ 1, %._crit_edge ]
  ret i32 %.023
}